Certificate:
    Data:
        Version: 3 (0x2)
        Serial Number:
            32:06:94:db:2f:8c:d4:41:20:4f:99:91:16:5d:da:27:1c:d1:ac:ce
        Signature Algorithm: sha256WithRSAEncryption
        Issuer: C = US, ST = Virginia, O = funcptr.org, CN = docker.fnptr.net
        Validity
            Not Before: Nov 21 02:39:39 2020 GMT
            Not After : Dec 21 02:39:39 2020 GMT
        Subject: C = US, ST = Virginia, O = funcptr.org, CN = docker.fnptr.net
        Subject Public Key Info:
            Public Key Algorithm: rsaEncryption
                RSA Public-Key: (4096 bit)
                Modulus:
                    00:df:b5:6b:9c:13:a4:20:2b:62:d2:fc:3e:c4:5a:
                    64:6c:1f:6d:e6:3f:8f:2d:91:72:bf:04:4c:3f:fd:
                    2b:cb:8b:8e:94:d9:6f:af:30:ad:bc:c2:73:d4:0f:
                    b3:18:0f:60:74:d8:e3:5a:69:2c:50:8d:f0:b6:f3:
                    d3:82:12:21:11:cc:b2:62:38:30:67:f9:b8:a0:54:
                    e5:ec:31:f3:52:8e:10:6d:58:df:db:e9:29:8f:8e:
                    a5:e6:cc:cf:5e:16:7b:ce:cb:9d:d4:65:3f:80:e9:
                    3b:4d:2e:d0:e2:f8:83:3b:84:28:1b:a1:7c:e9:3a:
                    b1:39:dd:60:eb:6f:aa:0e:b8:93:be:39:6a:83:b4:
                    1d:ed:45:0b:69:4d:6a:da:00:73:22:5d:0f:a8:7c:
                    d3:72:ed:b8:0a:3d:2c:70:ee:d7:09:51:5a:c6:ed:
                    e5:b7:7e:d6:0c:62:a0:86:ba:a6:11:54:59:b4:89:
                    54:53:3a:8d:46:dd:e4:e3:c7:23:5c:45:00:b5:7c:
                    60:87:6c:d3:b7:23:b7:5a:7f:c1:3b:70:8a:d7:7c:
                    9e:1f:06:07:db:d3:de:5f:82:54:8d:4f:0c:b9:2b:
                    e9:24:aa:fb:f7:0c:28:12:f3:35:e3:5c:d6:8e:fa:
                    86:2b:9d:4a:e8:3a:f3:96:17:64:58:db:82:e5:ba:
                    6a:d3:6b:27:44:2b:1c:3b:b5:9c:e8:af:81:86:aa:
                    83:8d:3a:ce:10:12:db:8c:5f:9a:2c:7c:cf:1a:8d:
                    3a:69:d6:5b:b7:e3:a6:6e:ef:f1:d2:ba:fb:8c:ef:
                    f1:a9:84:7a:37:e7:ee:e8:44:bb:22:78:37:47:9d:
                    0b:88:4b:65:a2:f3:88:79:30:ee:1c:c3:81:c8:a7:
                    e5:50:8d:19:96:a0:9d:00:24:73:8e:80:c8:91:f4:
                    bc:a1:f6:b8:83:1c:09:6b:37:62:09:78:08:f8:f9:
                    88:9b:6c:07:01:b1:df:27:1c:94:8e:ab:a0:8a:30:
                    48:5a:bd:1b:95:0e:ea:d1:81:61:dd:ae:28:9b:e5:
                    cb:d7:e3:18:2b:c2:ea:b2:d1:15:f9:70:d7:18:f3:
                    5c:0b:92:57:00:e6:cb:12:77:ac:cf:0c:68:a2:ba:
                    8a:b9:96:28:e7:10:60:57:f3:7e:ef:b8:2c:04:cb:
                    00:df:f0:30:e5:74:7b:49:1c:39:e9:3a:c9:5b:ba:
                    c9:bd:30:94:97:af:40:57:e9:c0:e1:e9:69:99:58:
                    f5:1b:02:53:53:90:53:c1:3d:74:64:f6:3c:cb:bf:
                    ee:80:f6:4c:e1:fd:16:91:5d:1c:ab:93:10:2f:94:
                    a7:65:45:89:e8:c6:ba:e7:7e:35:a5:f5:21:c6:da:
                    b4:70:d5
                Exponent: 65537 (0x10001)
        X509v3 extensions:
            X509v3 Subject Key Identifier: 
                35:49:27:09:64:F2:13:1D:B4:A5:35:46:35:C6:A2:22:B5:D7:37:86
            X509v3 Authority Key Identifier: 
                keyid:35:49:27:09:64:F2:13:1D:B4:A5:35:46:35:C6:A2:22:B5:D7:37:86

            X509v3 Basic Constraints: critical
                CA:TRUE
    Signature Algorithm: sha256WithRSAEncryption
         99:9d:33:4e:3b:e0:9b:b0:65:f1:86:b4:9f:14:a7:52:f7:5c:
         fd:7b:fc:66:e6:23:89:9d:13:eb:f9:74:28:c7:17:52:ec:b0:
         2c:48:ed:75:36:13:08:b7:89:8e:c7:e7:bc:7c:14:28:b9:c6:
         6e:a3:98:88:ca:18:8e:10:89:63:0e:ac:42:35:76:3a:b3:69:
         4d:18:b1:ca:e9:c7:66:37:91:08:a5:14:34:0a:b4:21:5e:cd:
         eb:a6:8e:28:e4:9e:5e:27:00:5f:92:f6:18:53:b3:a7:64:f3:
         97:7b:c8:cf:5a:1a:9b:51:d3:10:ec:d3:94:f0:02:7d:92:b2:
         94:e0:06:d1:a6:d1:7c:12:c6:04:85:0d:12:85:2b:10:23:82:
         68:3d:b8:9c:38:54:e8:fe:f4:18:f6:fd:76:85:97:57:7d:90:
         d8:ca:07:a9:c5:c7:81:ba:71:58:6d:4e:fa:ea:72:97:cc:6e:
         d0:0b:71:49:bd:15:22:2e:97:2c:74:0d:cf:41:b7:07:f7:08:
         3f:c9:35:11:d5:c3:0a:96:cc:b1:92:4e:17:99:2b:e1:cf:2d:
         13:ec:5c:b0:f6:0d:9f:75:18:82:7e:09:89:bb:93:85:ec:38:
         85:56:d1:f1:c1:e6:27:5f:c3:dc:17:25:a7:0d:f6:51:c3:07:
         40:39:a3:df:3e:ce:cc:1e:0d:d4:a0:7d:9f:c1:16:b1:81:0e:
         0b:51:06:98:e7:f9:53:50:51:12:a8:85:6d:c1:5f:91:ff:58:
         f7:88:4e:e7:e3:58:22:6b:a9:1e:2d:2e:e8:db:86:99:7a:c9:
         8c:f0:da:a2:ac:33:06:be:8f:96:3d:ed:8b:73:76:56:f2:e1:
         7c:0a:bf:22:da:a8:85:05:b9:1d:d2:25:98:7c:53:47:fa:b3:
         f6:89:dc:6b:e0:6a:c7:de:ec:9d:51:f0:9b:27:3e:88:40:ea:
         30:79:8c:d6:69:80:a1:0b:94:7d:62:0b:97:cd:d0:c9:98:6f:
         07:af:03:23:01:8b:9f:fd:86:75:df:fd:c9:65:27:4a:c6:c2:
         aa:ba:45:3c:a2:5e:55:aa:99:c7:65:0e:82:14:3f:e3:02:fc:
         4f:e6:f4:84:d7:0c:1b:7e:62:a6:5c:0e:bb:c4:42:3e:b0:a2:
         46:b3:50:1c:71:89:bc:88:2d:73:14:66:95:32:5c:ca:d9:b0:
         fa:08:8f:56:8d:f4:8a:18:a6:25:2e:27:17:fa:34:97:25:72:
         9b:47:db:59:dc:d8:57:ac:fc:81:ba:c9:1a:55:bd:3c:c2:2e:
         24:96:cb:df:66:36:2c:00:25:f8:c8:7d:e6:7a:8e:84:73:a1:
         df:d4:64:30:45:34:2b:81
-----BEGIN CERTIFICATE-----
MIIFgzCCA2ugAwIBAgIUMgaU2y+M1EEgT5mRFl3aJxzRrM4wDQYJKoZIhvcNAQEL
BQAwUTELMAkGA1UEBhMCVVMxETAPBgNVBAgMCFZpcmdpbmlhMRQwEgYDVQQKDAtm
dW5jcHRyLm9yZzEZMBcGA1UEAwwQZG9ja2VyLmZucHRyLm5ldDAeFw0yMDExMjEw
MjM5MzlaFw0yMDEyMjEwMjM5MzlaMFExCzAJBgNVBAYTAlVTMREwDwYDVQQIDAhW
aXJnaW5pYTEUMBIGA1UECgwLZnVuY3B0ci5vcmcxGTAXBgNVBAMMEGRvY2tlci5m
bnB0ci5uZXQwggIiMA0GCSqGSIb3DQEBAQUAA4ICDwAwggIKAoICAQDftWucE6Qg
K2LS/D7EWmRsH23mP48tkXK/BEw//SvLi46U2W+vMK28wnPUD7MYD2B02ONaaSxQ
jfC289OCEiERzLJiODBn+bigVOXsMfNSjhBtWN/b6SmPjqXmzM9eFnvOy53UZT+A
6TtNLtDi+IM7hCgboXzpOrE53WDrb6oOuJO+OWqDtB3tRQtpTWraAHMiXQ+ofNNy
7bgKPSxw7tcJUVrG7eW3ftYMYqCGuqYRVFm0iVRTOo1G3eTjxyNcRQC1fGCHbNO3
I7daf8E7cIrXfJ4fBgfb095fglSNTwy5K+kkqvv3DCgS8zXjXNaO+oYrnUroOvOW
F2RY24LlumrTaydEKxw7tZzor4GGqoONOs4QEtuMX5osfM8ajTpp1lu346Zu7/HS
uvuM7/GphHo35+7oRLsieDdHnQuIS2Wi84h5MO4cw4HIp+VQjRmWoJ0AJHOOgMiR
9Lyh9riDHAlrN2IJeAj4+YibbAcBsd8nHJSOq6CKMEhavRuVDurRgWHdriib5cvX
4xgrwuqy0RX5cNcY81wLklcA5ssSd6zPDGiiuoq5lijnEGBX837vuCwEywDf8DDl
dHtJHDnpOslbusm9MJSXr0BX6cDh6WmZWPUbAlNTkFPBPXRk9jzLv+6A9kzh/RaR
XRyrkxAvlKdlRYnoxrrnfjWl9SHG2rRw1QIDAQABo1MwUTAdBgNVHQ4EFgQUNUkn
CWTyEx20pTVGNcaiIrXXN4YwHwYDVR0jBBgwFoAUNUknCWTyEx20pTVGNcaiIrXX
N4YwDwYDVR0TAQH/BAUwAwEB/zANBgkqhkiG9w0BAQsFAAOCAgEAmZ0zTjvgm7Bl
8Ya0nxSnUvdc/Xv8ZuYjiZ0T6/l0KMcXUuywLEjtdTYTCLeJjsfnvHwUKLnGbqOY
iMoYjhCJYw6sQjV2OrNpTRixyunHZjeRCKUUNAq0IV7N66aOKOSeXicAX5L2GFOz
p2Tzl3vIz1oam1HTEOzTlPACfZKylOAG0abRfBLGBIUNEoUrECOCaD24nDhU6P70
GPb9doWXV32Q2MoHqcXHgbpxWG1O+upyl8xu0AtxSb0VIi6XLHQNz0G3B/cIP8k1
EdXDCpbMsZJOF5kr4c8tE+xcsPYNn3UYgn4JibuThew4hVbR8cHmJ1/D3Bclpw32
UcMHQDmj3z7OzB4N1KB9n8EWsYEOC1EGmOf5U1BREqiFbcFfkf9Y94hO5+NYImup
Hi0u6NuGmXrJjPDaoqwzBr6Plj3ti3N2VvLhfAq/ItqohQW5HdIlmHxTR/qz9onc
a+Bqx97snVHwmyc+iEDqMHmM1mmAoQuUfWILl83QyZhvB68DIwGLn/2Gdd/9yWUn
SsbCqrpFPKJeVaqZx2UOghQ/4wL8T+b0hNcMG35iplwOu8RCPrCiRrNQHHGJvIgt
cxRmlTJcytmw+giPVo30ihimJS4nF/o0lyVym0fbWdzYV6z8gbrJGlW9PMIuJJbL
32Y2LAAl+Mh95nqOhHOh39RkMEU0K4E=
-----END CERTIFICATE-----
